target datalayout = "e-m:e-p270:32:32-p271:32:32-p272:64:64-i64:64-i128:128-f80:128-n8:16:32:64-S128"
target triple = "x86_64-pc-linux-gnu"

@.str.1 = private unnamed_addr constant [1 x i8] zeroinitializer, align 1
@.str.45 = private unnamed_addr constant [2 x i8] c" \00", align 1
@.str.46 = private unnamed_addr constant [5 x i8] c"%12s\00", align 1
@.str.48 = private unnamed_addr constant [2 x i8] c"B\00", align 1
@.str.49 = private unnamed_addr constant [12 x i8] c"%lld   %-3s\00", align 1
@.str.50 = private unnamed_addr constant [2 x i8] c"K\00", align 1
@.str.51 = private unnamed_addr constant [2 x i8] c"M\00", align 1
@.str.52 = private unnamed_addr constant [2 x i8] c"G\00", align 1
@.str.53 = private unnamed_addr constant [7 x i8] c"%s%s%s\00", align 1
@.str.54 = private unnamed_addr constant [2 x i8] c"i\00", align 1
@.str.55 = private unnamed_addr constant [13 x i8] c"%ld.%ld %-3s\00", align 1

; Function Attrs: nounwind uwtable
define internal void @mi_printf_amount(i64 noundef %0, i64 noundef %1, ptr noundef %2, ptr noundef %3, ptr noundef %4) #0 {
  %6 = alloca i64, align 8
  %7 = alloca i64, align 8
  %8 = alloca ptr, align 8
  %9 = alloca ptr, align 8
  %10 = alloca ptr, align 8
  %11 = alloca [32 x i8], align 16
  %12 = alloca i32, align 4
  %13 = alloca ptr, align 8
  %14 = alloca i64, align 8
  %15 = alloca i64, align 8
  %16 = alloca i64, align 8
  %17 = alloca ptr, align 8
  %18 = alloca i64, align 8
  %19 = alloca i64, align 8
  %20 = alloca i64, align 8
  %21 = alloca [8 x i8], align 1
  store i64 %0, ptr %6, align 8, !tbaa !8
  store i64 %1, ptr %7, align 8, !tbaa !8
  store ptr %2, ptr %8, align 8, !tbaa !13
  store ptr %3, ptr %9, align 8, !tbaa !13
  store ptr %4, ptr %10, align 8, !tbaa !54
  call void @llvm.lifetime.start.p0(i64 32, ptr %11) #7
  %22 = getelementptr inbounds [32 x i8], ptr %11, i64 0, i64 0
  store i8 0, ptr %22, align 16, !tbaa !57
  call void @llvm.lifetime.start.p0(i64 4, ptr %12) #7
  store i32 32, ptr %12, align 4, !tbaa !59
  call void @llvm.lifetime.start.p0(i64 8, ptr %13) #7
  %23 = load i64, ptr %7, align 8, !tbaa !8
  %24 = icmp sle i64 %23, 0
  %25 = select i1 %24, ptr @.str.45, ptr @.str.48
  store ptr %25, ptr %13, align 8, !tbaa !54
  call void @llvm.lifetime.start.p0(i64 8, ptr %14) #7
  %26 = load i64, ptr %7, align 8, !tbaa !8
  %27 = icmp eq i64 %26, 0
  %28 = select i1 %27, i32 1000, i32 1024
  %29 = sext i32 %28 to i64
  store i64 %29, ptr %14, align 8, !tbaa !8
  %30 = load i64, ptr %7, align 8, !tbaa !8
  %31 = icmp sgt i64 %30, 0
  br i1 %31, label %32, label %36

32:                                               ; preds = %5
  %33 = load i64, ptr %7, align 8, !tbaa !8
  %34 = load i64, ptr %6, align 8, !tbaa !8
  %35 = mul nsw i64 %34, %33
  store i64 %35, ptr %6, align 8, !tbaa !8
  br label %36

36:                                               ; preds = %32, %5
  call void @llvm.lifetime.start.p0(i64 8, ptr %15) #7
  %37 = load i64, ptr %6, align 8, !tbaa !8
  %38 = icmp slt i64 %37, 0
  br i1 %38, label %39, label %42

39:                                               ; preds = %36
  %40 = load i64, ptr %6, align 8, !tbaa !8
  %41 = sub nsw i64 0, %40
  br label %44

42:                                               ; preds = %36
  %43 = load i64, ptr %6, align 8, !tbaa !8
  br label %44

44:                                               ; preds = %42, %39
  %45 = phi i64 [ %41, %39 ], [ %43, %42 ]
  store i64 %45, ptr %15, align 8, !tbaa !8
  %46 = load i64, ptr %15, align 8, !tbaa !8
  %47 = load i64, ptr %14, align 8, !tbaa !8
  %48 = icmp slt i64 %46, %47
  br i1 %48, label %49, label %71

49:                                               ; preds = %44
  %50 = load i64, ptr %6, align 8, !tbaa !8
  %51 = icmp ne i64 %50, 1
  br i1 %51, label %58, label %52

52:                                               ; preds = %49
  %53 = load ptr, ptr %13, align 8, !tbaa !54
  %54 = getelementptr inbounds i8, ptr %53, i64 0
  %55 = load i8, ptr %54, align 1, !tbaa !57
  %56 = sext i8 %55 to i32
  %57 = icmp ne i32 %56, 66
  br i1 %57, label %58, label %70

58:                                               ; preds = %52, %49
  %59 = getelementptr inbounds [32 x i8], ptr %11, i64 0, i64 0
  %60 = load i32, ptr %12, align 4, !tbaa !59
  %61 = sext i32 %60 to i64
  %62 = load i64, ptr %6, align 8, !tbaa !8
  %63 = load i64, ptr %6, align 8, !tbaa !8
  %64 = icmp eq i64 %63, 0
  br i1 %64, label %65, label %66

65:                                               ; preds = %58
  br label %68

66:                                               ; preds = %58
  %67 = load ptr, ptr %13, align 8, !tbaa !54
  br label %68

68:                                               ; preds = %66, %65
  %69 = phi ptr [ @.str.1, %65 ], [ %67, %66 ]
  call void (ptr, i64, ptr, ...) @_mi_snprintf(ptr noundef %59, i64 noundef %61, ptr noundef @.str.49, i64 noundef %62, ptr noundef %69) #6
  br label %70

70:                                               ; preds = %68, %52
  br label %121

71:                                               ; preds = %44
  call void @llvm.lifetime.start.p0(i64 8, ptr %16) #7
  %72 = load i64, ptr %14, align 8, !tbaa !8
  store i64 %72, ptr %16, align 8, !tbaa !8
  call void @llvm.lifetime.start.p0(i64 8, ptr %17) #7
  store ptr @.str.50, ptr %17, align 8, !tbaa !54
  %73 = load i64, ptr %15, align 8, !tbaa !8
  %74 = load i64, ptr %16, align 8, !tbaa !8
  %75 = load i64, ptr %14, align 8, !tbaa !8
  %76 = mul nsw i64 %74, %75
  %77 = icmp sge i64 %73, %76
  br i1 %77, label %78, label %82

78:                                               ; preds = %71
  %79 = load i64, ptr %14, align 8, !tbaa !8
  %80 = load i64, ptr %16, align 8, !tbaa !8
  %81 = mul nsw i64 %80, %79
  store i64 %81, ptr %16, align 8, !tbaa !8
  store ptr @.str.51, ptr %17, align 8, !tbaa !54
  br label %82

82:                                               ; preds = %78, %71
  %83 = load i64, ptr %15, align 8, !tbaa !8
  %84 = load i64, ptr %16, align 8, !tbaa !8
  %85 = load i64, ptr %14, align 8, !tbaa !8
  %86 = mul nsw i64 %84, %85
  %87 = icmp sge i64 %83, %86
  br i1 %87, label %88, label %92

88:                                               ; preds = %82
  %89 = load i64, ptr %14, align 8, !tbaa !8
  %90 = load i64, ptr %16, align 8, !tbaa !8
  %91 = mul nsw i64 %90, %89
  store i64 %91, ptr %16, align 8, !tbaa !8
  store ptr @.str.52, ptr %17, align 8, !tbaa !54
  br label %92

92:                                               ; preds = %88, %82
  call void @llvm.lifetime.start.p0(i64 8, ptr %18) #7
  %93 = load i64, ptr %6, align 8, !tbaa !8
  %94 = load i64, ptr %16, align 8, !tbaa !8
  %95 = sdiv i64 %94, 10
  %96 = sdiv i64 %93, %95
  store i64 %96, ptr %18, align 8, !tbaa !8
  call void @llvm.lifetime.start.p0(i64 8, ptr %19) #7
  %97 = load i64, ptr %18, align 8, !tbaa !8
  %98 = sdiv i64 %97, 10
  store i64 %98, ptr %19, align 8, !tbaa !8
  call void @llvm.lifetime.start.p0(i64 8, ptr %20) #7
  %99 = load i64, ptr %18, align 8, !tbaa !8
  %100 = srem i64 %99, 10
  store i64 %100, ptr %20, align 8, !tbaa !8
  call void @llvm.lifetime.start.p0(i64 8, ptr %21) #7
  %101 = getelementptr inbounds [8 x i8], ptr %21, i64 0, i64 0
  %102 = load ptr, ptr %17, align 8, !tbaa !54
  %103 = load i64, ptr %14, align 8, !tbaa !8
  %104 = icmp eq i64 %103, 1024
  %105 = select i1 %104, ptr @.str.54, ptr @.str.1
  %106 = load ptr, ptr %13, align 8, !tbaa !54
  call void (ptr, i64, ptr, ...) @_mi_snprintf(ptr noundef %101, i64 noundef 8, ptr noundef @.str.53, ptr noundef %102, ptr noundef %105, ptr noundef %106) #6
  %107 = getelementptr inbounds [32 x i8], ptr %11, i64 0, i64 0
  %108 = load i32, ptr %12, align 4, !tbaa !59
  %109 = sext i32 %108 to i64
  %110 = load i64, ptr %19, align 8, !tbaa !8
  %111 = load i64, ptr %20, align 8, !tbaa !8
  %112 = icmp slt i64 %111, 0
  br i1 %112, label %113, label %116

113:                                              ; preds = %92
  %114 = load i64, ptr %20, align 8, !tbaa !8
  %115 = sub nsw i64 0, %114
  br label %118

116:                                              ; preds = %92
  %117 = load i64, ptr %20, align 8, !tbaa !8
  br label %118

118:                                              ; preds = %116, %113
  %119 = phi i64 [ %115, %113 ], [ %117, %116 ]
  %120 = getelementptr inbounds [8 x i8], ptr %21, i64 0, i64 0
  call void (ptr, i64, ptr, ...) @_mi_snprintf(ptr noundef %107, i64 noundef %109, ptr noundef @.str.55, i64 noundef %110, i64 noundef %119, ptr noundef %120) #6
  call void @llvm.lifetime.end.p0(i64 8, ptr %21) #7
  call void @llvm.lifetime.end.p0(i64 8, ptr %20) #7
  call void @llvm.lifetime.end.p0(i64 8, ptr %19) #7
  call void @llvm.lifetime.end.p0(i64 8, ptr %18) #7
  call void @llvm.lifetime.end.p0(i64 8, ptr %17) #7
  call void @llvm.lifetime.end.p0(i64 8, ptr %16) #7
  br label %121

121:                                              ; preds = %118, %70
  %122 = load ptr, ptr %8, align 8, !tbaa !13
  %123 = load ptr, ptr %9, align 8, !tbaa !13
  %124 = load ptr, ptr %10, align 8, !tbaa !54
  %125 = icmp eq ptr %124, null
  br i1 %125, label %126, label %127

126:                                              ; preds = %121
  br label %129

127:                                              ; preds = %121
  %128 = load ptr, ptr %10, align 8, !tbaa !54
  br label %129

129:                                              ; preds = %127, %126
  %130 = phi ptr [ @.str.46, %126 ], [ %128, %127 ]
  %131 = getelementptr inbounds [32 x i8], ptr %11, i64 0, i64 0
  call void (ptr, ptr, ptr, ...) @_mi_fprintf(ptr noundef %122, ptr noundef %123, ptr noundef %130, ptr noundef %131) #6
  call void @llvm.lifetime.end.p0(i64 8, ptr %15) #7
  call void @llvm.lifetime.end.p0(i64 8, ptr %14) #7
  call void @llvm.lifetime.end.p0(i64 8, ptr %13) #7
  call void @llvm.lifetime.end.p0(i64 4, ptr %12) #7
  call void @llvm.lifetime.end.p0(i64 32, ptr %11) #7
  ret void
}